target datalayout = "e-m:e-p270:32:32-p271:32:32-p272:64:64-i64:64-i128:128-f80:128-n8:16:32:64-S128"
target triple = "x86_64-pc-linux-gnu"

; Function Attrs: mustprogress nounwind uwtable
define noundef double @_ZN10duckdb_hll8hllSigmaEd(double noundef %0) #0 {
  %2 = alloca double, align 8
  %3 = alloca double, align 8
  %4 = alloca double, align 8
  %5 = alloca double, align 8
  %6 = alloca double, align 8
  store double %0, ptr %3, align 8, !tbaa !46
  %7 = load double, ptr %3, align 8, !tbaa !46
  %8 = fcmp oeq double %7, 1.000000e+00
  br i1 %8, label %9, label %10

9:                                                ; preds = %1
  store double 0x7FF0000000000000, ptr %2, align 8
  br label %30

10:                                               ; preds = %1
  call void @llvm.lifetime.start.p0(i64 8, ptr %4) #10
  call void @llvm.lifetime.start.p0(i64 8, ptr %5) #10
  store double 1.000000e+00, ptr %5, align 8, !tbaa !46
  call void @llvm.lifetime.start.p0(i64 8, ptr %6) #10
  %11 = load double, ptr %3, align 8, !tbaa !46
  store double %11, ptr %6, align 8, !tbaa !46
  br label %12

12:                                               ; preds = %24, %10
  %13 = load double, ptr %3, align 8, !tbaa !46
  %14 = load double, ptr %3, align 8, !tbaa !46
  %15 = fmul double %14, %13
  store double %15, ptr %3, align 8, !tbaa !46
  %16 = load double, ptr %6, align 8, !tbaa !46
  store double %16, ptr %4, align 8, !tbaa !46
  %17 = load double, ptr %3, align 8, !tbaa !46
  %18 = load double, ptr %5, align 8, !tbaa !46
  %19 = load double, ptr %6, align 8, !tbaa !46
  %20 = call double @llvm.fmuladd.f64(double %17, double %18, double %19)
  store double %20, ptr %6, align 8, !tbaa !46
  %21 = load double, ptr %5, align 8, !tbaa !46
  %22 = load double, ptr %5, align 8, !tbaa !46
  %23 = fadd double %22, %21
  store double %23, ptr %5, align 8, !tbaa !46
  br label %24

24:                                               ; preds = %12
  %25 = load double, ptr %4, align 8, !tbaa !46
  %26 = load double, ptr %6, align 8, !tbaa !46
  %27 = fcmp une double %25, %26
  br i1 %27, label %12, label %28, !llvm.loop !48

28:                                               ; preds = %24
  %29 = load double, ptr %6, align 8, !tbaa !46
  store double %29, ptr %2, align 8
  call void @llvm.lifetime.end.p0(i64 8, ptr %6) #10
  call void @llvm.lifetime.end.p0(i64 8, ptr %5) #10
  call void @llvm.lifetime.end.p0(i64 8, ptr %4) #10
  br label %30

30:                                               ; preds = %28, %9
  %31 = load double, ptr %2, align 8
  ret double %31
}