; Function Attrs: mustprogress nofree norecurse nosync nounwind willreturn memory(none) uwtable
define noundef double @_ZN10duckdb_hll8hllSigmaEd(double noundef %0) local_unnamed_addr #6 {
  %2 = fcmp oeq double %0, 1.000000e+00
  br i1 %2, label %.loopexit, label %.preheader

.preheader:                                       ; preds = %1, %.preheader
  %.016 = phi double [ %3, %.preheader ], [ %0, %1 ]
  %.014 = phi double [ %5, %.preheader ], [ 1.000000e+00, %1 ]
  %.0 = phi double [ %4, %.preheader ], [ %0, %1 ]
  %3 = fmul double %.016, %.016
  %4 = tail call double @llvm.fmuladd.f64(double %3, double %.014, double %.0)
  %5 = fadd double %.014, %.014
  %6 = fcmp une double %.0, %4
  br i1 %6, label %.preheader, label %.loopexit, !llvm.loop !34

.loopexit:                                        ; preds = %.preheader, %1
  %.015 = phi double [ 0x7FF0000000000000, %1 ], [ %4, %.preheader ]
  ret double %.015
}